ccopy_reg
_reconstructor
p1
(cnumpy.lib.polynomial
poly1d
p2
c__builtin__
object
p3
NtRp4
(dp5
S'coeffs'
p6
cnumpy.core.multiarray
_reconstruct
p7
(cnumpy
ndarray
p8
(I0
tS'b'
tRp9
(I1
(I2
tcnumpy
dtype
p10
(S'f8'
I0
I1
tRp11
(I3
S'<'
NNNI-1
I-1
I0
tbI00
S'D\x83\xd6&\x1a\xaf\xe9?\xcd\x822\x8a\xf9\x17\xf2?'
tbsS'_variable'
p12
S'x'
sb.